target datalayout = "e-m:e-p270:32:32-p271:32:32-p272:64:64-i64:64-i128:128-f80:128-n8:16:32:64-S128"
target triple = "x86_64-pc-linux-gnu"

%struct.pmix_tma = type { ptr, ptr, ptr, ptr, ptr, ptr, ptr, ptr }
%struct.pmix_coord = type { i8, ptr, i64 }

; Function Attrs: inlinehint nounwind uwtable
define internal ptr @pmix_tma_malloc(ptr noundef %0, i64 noundef %1) #1 {
  %3 = alloca ptr, align 8
  %4 = alloca ptr, align 8
  %5 = alloca i64, align 8
  store ptr %0, ptr %4, align 8, !tbaa !8
  store i64 %1, ptr %5, align 8, !tbaa !30
  %6 = load ptr, ptr %4, align 8, !tbaa !8
  %7 = icmp ne ptr null, %6
  br i1 %7, label %8, label %15

8:                                                ; preds = %2
  %9 = load ptr, ptr %4, align 8, !tbaa !8
  %10 = getelementptr inbounds nuw %struct.pmix_tma, ptr %9, i32 0, i32 0
  %11 = load ptr, ptr %10, align 8, !tbaa !226
  %12 = load ptr, ptr %4, align 8, !tbaa !8
  %13 = load i64, ptr %5, align 8, !tbaa !30
  %14 = call ptr %11(ptr noundef %12, i64 noundef %13)
  store ptr %14, ptr %3, align 8
  br label %18

15:                                               ; preds = %2
  %16 = load i64, ptr %5, align 8, !tbaa !30
  %17 = call noalias ptr @malloc(i64 noundef %16) #17
  store ptr %17, ptr %3, align 8
  br label %18

18:                                               ; preds = %15, %8
  %19 = load ptr, ptr %3, align 8
  ret ptr %19
}

; Function Attrs: inlinehint nounwind uwtable
define internal ptr @pmix_bfrops_base_tma_coord_create(i64 noundef %0, i64 noundef %1, ptr noundef %2) #1 {
  %4 = alloca ptr, align 8
  %5 = alloca i64, align 8
  %6 = alloca i64, align 8
  %7 = alloca ptr, align 8
  %8 = alloca ptr, align 8
  %9 = alloca i32, align 4
  store i64 %0, ptr %5, align 8, !tbaa !30
  store i64 %1, ptr %6, align 8, !tbaa !30
  store ptr %2, ptr %7, align 8, !tbaa !8
  %10 = load i64, ptr %6, align 8, !tbaa !30
  %11 = icmp eq i64 0, %10
  br i1 %11, label %12, label %13

12:                                               ; preds = %3
  store ptr null, ptr %4, align 8
  br label %65

13:                                               ; preds = %3
  call void @llvm.lifetime.start.p0(i64 8, ptr %8) #15
  %14 = load ptr, ptr %7, align 8, !tbaa !8
  %15 = load i64, ptr %6, align 8, !tbaa !30
  %16 = mul i64 %15, 24
  %17 = call ptr @pmix_tma_malloc(ptr noundef %14, i64 noundef %16)
  store ptr %17, ptr %8, align 8, !tbaa !60
  %18 = load ptr, ptr %8, align 8, !tbaa !60
  %19 = icmp eq ptr null, %18
  %20 = xor i1 %19, true
  %21 = xor i1 %20, true
  %22 = zext i1 %21 to i32
  %23 = sext i32 %22 to i64
  %24 = call i64 @llvm.expect.i64(i64 %23, i64 0)
  %25 = icmp ne i64 %24, 0
  br i1 %25, label %26, label %27

26:                                               ; preds = %13
  store ptr null, ptr %4, align 8
  store i32 1, ptr %9, align 4
  br label %64

27:                                               ; preds = %13
  %28 = load ptr, ptr %8, align 8, !tbaa !60
  %29 = getelementptr inbounds nuw %struct.pmix_coord, ptr %28, i32 0, i32 0
  store i8 0, ptr %29, align 8, !tbaa !62
  %30 = load i64, ptr %5, align 8, !tbaa !30
  %31 = load ptr, ptr %8, align 8, !tbaa !60
  %32 = getelementptr inbounds nuw %struct.pmix_coord, ptr %31, i32 0, i32 2
  store i64 %30, ptr %32, align 8, !tbaa !66
  %33 = load i64, ptr %5, align 8, !tbaa !30
  %34 = icmp eq i64 0, %33
  br i1 %34, label %35, label %38

35:                                               ; preds = %27
  %36 = load ptr, ptr %8, align 8, !tbaa !60
  %37 = getelementptr inbounds nuw %struct.pmix_coord, ptr %36, i32 0, i32 1
  store ptr null, ptr %37, align 8, !tbaa !65
  br label %62

38:                                               ; preds = %27
  %39 = load ptr, ptr %7, align 8, !tbaa !8
  %40 = load i64, ptr %5, align 8, !tbaa !30
  %41 = mul i64 %40, 4
  %42 = call ptr @pmix_tma_malloc(ptr noundef %39, i64 noundef %41)
  %43 = load ptr, ptr %8, align 8, !tbaa !60
  %44 = getelementptr inbounds nuw %struct.pmix_coord, ptr %43, i32 0, i32 1
  store ptr %42, ptr %44, align 8, !tbaa !65
  %45 = load ptr, ptr %8, align 8, !tbaa !60
  %46 = getelementptr inbounds nuw %struct.pmix_coord, ptr %45, i32 0, i32 1
  %47 = load ptr, ptr %46, align 8, !tbaa !65
  %48 = icmp ne ptr null, %47
  %49 = xor i1 %48, true
  %50 = xor i1 %49, true
  %51 = zext i1 %50 to i32
  %52 = sext i32 %51 to i64
  %53 = call i64 @llvm.expect.i64(i64 %52, i64 1)
  %54 = icmp ne i64 %53, 0
  br i1 %54, label %55, label %61

55:                                               ; preds = %38
  %56 = load ptr, ptr %8, align 8, !tbaa !60
  %57 = getelementptr inbounds nuw %struct.pmix_coord, ptr %56, i32 0, i32 1
  %58 = load ptr, ptr %57, align 8, !tbaa !65
  %59 = load i64, ptr %5, align 8, !tbaa !30
  %60 = mul i64 %59, 4
  call void @llvm.memset.p0.i64(ptr align 4 %58, i8 0, i64 %60, i1 false)
  br label %61

61:                                               ; preds = %55, %38
  br label %62

62:                                               ; preds = %61, %35
  %63 = load ptr, ptr %8, align 8, !tbaa !60
  store ptr %63, ptr %4, align 8
  store i32 1, ptr %9, align 4
  br label %64

64:                                               ; preds = %62, %26
  call void @llvm.lifetime.end.p0(i64 8, ptr %8) #15
  br label %65

65:                                               ; preds = %64, %12
  %66 = load ptr, ptr %4, align 8
  ret ptr %66
}

; Function Attrs: nounwind uwtable
define ptr @PMIx_Coord_create(i64 noundef %0, i64 noundef %1) #0 {
  %3 = alloca i64, align 8
  %4 = alloca i64, align 8
  store i64 %0, ptr %3, align 8, !tbaa !30
  store i64 %1, ptr %4, align 8, !tbaa !30
  %5 = load i64, ptr %3, align 8, !tbaa !30
  %6 = load i64, ptr %4, align 8, !tbaa !30
  %7 = call ptr @pmix_bfrops_base_tma_coord_create(i64 noundef %5, i64 noundef %6, ptr noundef null)
  ret ptr %7
}