; Function Attrs: mustprogress nofree nounwind willreturn memory(write, argmem: none, inaccessiblemem: readwrite) uwtable
define noalias noundef ptr @PMIx_Coord_create(i64 noundef %0, i64 noundef %1) local_unnamed_addr #17 {
  %3 = icmp eq i64 %1, 0
  br i1 %3, label %pmix_bfrops_base_tma_coord_create.exit, label %4

4:                                                ; preds = %2
  %5 = mul i64 %1, 24
  %6 = tail call noalias noundef ptr @malloc(i64 noundef %5) #45
  %7 = icmp eq ptr %6, null
  br i1 %7, label %pmix_bfrops_base_tma_coord_create.exit, label %8, !prof !77

8:                                                ; preds = %4
  store i8 0, ptr %6, align 8, !tbaa !31
  %9 = getelementptr inbounds nuw i8, ptr %6, i64 16
  store i64 %0, ptr %9, align 8, !tbaa !84
  %10 = icmp eq i64 %0, 0
  br i1 %10, label %.sink.split.i, label %11

11:                                               ; preds = %8
  %12 = shl i64 %0, 2
  %calloc.i = tail call ptr @calloc(i64 1, i64 %12)
  br label %.sink.split.i

.sink.split.i:                                    ; preds = %11, %8
  %calloc.sink.i = phi ptr [ %calloc.i, %11 ], [ null, %8 ]
  %13 = getelementptr inbounds nuw i8, ptr %6, i64 8
  store ptr %calloc.sink.i, ptr %13, align 8, !tbaa !35
  br label %pmix_bfrops_base_tma_coord_create.exit

pmix_bfrops_base_tma_coord_create.exit:           ; preds = %2, %4, %.sink.split.i
  %.0.i = phi ptr [ null, %2 ], [ null, %4 ], [ %6, %.sink.split.i ]
  ret ptr %.0.i
}